target datalayout = "e-m:e-p270:32:32-p271:32:32-p272:64:64-i64:64-i128:128-f80:128-n8:16:32:64-S128"
target triple = "x86_64-pc-linux-gnu"

%class.LIR_Opr = type { i64 }
%class.LIRItem = type { ptr, ptr, %class.LIR_Opr, i8, %class.LIR_Opr }
%class.Instruction = type { ptr, i32, i32, i32, ptr, ptr, ptr, %class.LIR_Opr, i32, ptr, ptr, ptr, ptr }

; Function Attrs: mustprogress nounwind uwtable
define linkonce_odr hidden noundef i64 @_ZNK7LIR_Opr5valueEv(ptr noundef nonnull align 8 dereferenceable(8) %0) #1 comdat align 2 {
  %2 = alloca ptr, align 8
  store ptr %0, ptr %2, align 8
  %3 = load ptr, ptr %2, align 8
  %4 = getelementptr inbounds %class.LIR_Opr, ptr %3, i32 0, i32 0
  %5 = load i64, ptr %4, align 8
  ret i64 %5
}

; Function Attrs: mustprogress nounwind uwtable
define linkonce_odr hidden noundef zeroext i1 @_ZNK7LIR_Opr16check_value_maskEll(ptr noundef nonnull align 8 dereferenceable(8) %0, i64 noundef %1, i64 noundef %2) #1 comdat align 2 {
  %4 = alloca ptr, align 8
  %5 = alloca i64, align 8
  %6 = alloca i64, align 8
  store ptr %0, ptr %4, align 8
  store i64 %1, ptr %5, align 8
  store i64 %2, ptr %6, align 8
  %7 = load ptr, ptr %4, align 8
  %8 = call noundef i64 @_ZNK7LIR_Opr5valueEv(ptr noundef nonnull align 8 dereferenceable(8) %7)
  %9 = load i64, ptr %5, align 8
  %10 = and i64 %8, %9
  %11 = load i64, ptr %6, align 8
  %12 = icmp eq i64 %10, %11
  ret i1 %12
}

; Function Attrs: mustprogress nounwind uwtable
define linkonce_odr hidden noundef ptr @_ZNK7LIR_Opr7pointerEv(ptr noundef nonnull align 8 dereferenceable(8) %0) #1 comdat align 2 {
  %2 = alloca ptr, align 8
  store ptr %0, ptr %2, align 8
  %3 = load ptr, ptr %2, align 8
  %4 = getelementptr inbounds %class.LIR_Opr, ptr %3, i32 0, i32 0
  %5 = load i64, ptr %4, align 8
  %6 = inttoptr i64 %5 to ptr
  ret ptr %6
}

; Function Attrs: mustprogress nounwind uwtable
define linkonce_odr hidden noundef zeroext i1 @_ZNK7LIR_Opr10is_pointerEv(ptr noundef nonnull align 8 dereferenceable(8) %0) #1 comdat align 2 {
  %2 = alloca ptr, align 8
  store ptr %0, ptr %2, align 8
  %3 = load ptr, ptr %2, align 8
  %4 = call noundef zeroext i1 @_ZNK7LIR_Opr16check_value_maskEll(ptr noundef nonnull align 8 dereferenceable(8) %3, i64 noundef 1, i64 noundef 0)
  ret i1 %4
}

; Function Attrs: mustprogress nounwind uwtable
define linkonce_odr hidden noundef zeroext i1 @_ZNK7LIR_Opr11is_constantEv(ptr noundef nonnull align 8 dereferenceable(8) %0) #1 comdat align 2 {
  %2 = alloca ptr, align 8
  store ptr %0, ptr %2, align 8
  %3 = load ptr, ptr %2, align 8
  %4 = call noundef zeroext i1 @_ZNK7LIR_Opr10is_pointerEv(ptr noundef nonnull align 8 dereferenceable(8) %3)
  br i1 %4, label %5, label %12

5:                                                ; preds = %1
  %6 = call noundef ptr @_ZNK7LIR_Opr7pointerEv(ptr noundef nonnull align 8 dereferenceable(8) %3)
  %7 = load ptr, ptr %6, align 8
  %8 = getelementptr inbounds ptr, ptr %7, i64 0
  %9 = load ptr, ptr %8, align 8
  %10 = call noundef ptr %9(ptr noundef nonnull align 8 dereferenceable(8) %6)
  %11 = icmp ne ptr %10, null
  br label %12

12:                                               ; preds = %5, %1
  %13 = phi i1 [ false, %1 ], [ %11, %5 ]
  ret i1 %13
}

; Function Attrs: mustprogress nounwind uwtable
define linkonce_odr hidden noundef ptr @_ZN7LIR_OprptEv(ptr noundef nonnull align 8 dereferenceable(8) %0) #1 comdat align 2 {
  %2 = alloca ptr, align 8
  store ptr %0, ptr %2, align 8
  %3 = load ptr, ptr %2, align 8
  ret ptr %3
}

; Function Attrs: mustprogress nounwind uwtable
define linkonce_odr hidden i64 @_ZNK11Instruction7operandEv(ptr noundef nonnull align 8 dereferenceable(96) %0) #1 comdat align 2 {
  %2 = alloca %class.LIR_Opr, align 8
  %3 = alloca ptr, align 8
  store ptr %0, ptr %3, align 8
  %4 = load ptr, ptr %3, align 8
  %5 = getelementptr inbounds %class.Instruction, ptr %4, i32 0, i32 7
  call void @llvm.memcpy.p0.p0.i64(ptr align 8 %2, ptr align 8 %5, i64 8, i1 false)
  %6 = getelementptr inbounds %class.LIR_Opr, ptr %2, i32 0, i32 0
  %7 = load i64, ptr %6, align 8
  ret i64 %7
}

; Function Attrs: mustprogress nounwind uwtable
define linkonce_odr hidden noundef ptr @_ZNK7LIRItem5valueEv(ptr noundef nonnull align 8 dereferenceable(40) %0) #1 comdat align 2 {
  %2 = alloca ptr, align 8
  store ptr %0, ptr %2, align 8
  %3 = load ptr, ptr %2, align 8
  %4 = getelementptr inbounds %class.LIRItem, ptr %3, i32 0, i32 0
  %5 = load ptr, ptr %4, align 8
  ret ptr %5
}

; Function Attrs: mustprogress nounwind uwtable
define hidden void @_ZN7LIRItem16load_nonconstantEv(ptr noundef nonnull align 8 dereferenceable(40) %0) #1 align 2 {
  %2 = alloca ptr, align 8
  %3 = alloca %class.LIR_Opr, align 8
  store ptr %0, ptr %2, align 8
  %4 = load ptr, ptr %2, align 8
  %5 = call noundef ptr @_ZNK7LIRItem5valueEv(ptr noundef nonnull align 8 dereferenceable(40) %4)
  %6 = call i64 @_ZNK11Instruction7operandEv(ptr noundef nonnull align 8 dereferenceable(96) %5)
  %7 = getelementptr inbounds %class.LIR_Opr, ptr %3, i32 0, i32 0
  store i64 %6, ptr %7, align 8
  %8 = call noundef ptr @_ZN7LIR_OprptEv(ptr noundef nonnull align 8 dereferenceable(8) %3)
  %9 = call noundef zeroext i1 @_ZNK7LIR_Opr11is_constantEv(ptr noundef nonnull align 8 dereferenceable(8) %8)
  br i1 %9, label %10, label %12

10:                                               ; preds = %1
  %11 = getelementptr inbounds %class.LIRItem, ptr %4, i32 0, i32 2
  call void @llvm.memcpy.p0.p0.i64(ptr align 8 %11, ptr align 8 %3, i64 8, i1 false)
  br label %13

12:                                               ; preds = %1
  call void @_ZN7LIRItem9load_itemEv(ptr noundef nonnull align 8 dereferenceable(40) %4)
  br label %13

13:                                               ; preds = %12, %10
  ret void
}