; Function Attrs: mustprogress nounwind uwtable
define hidden void @_ZN7LIRItem16load_nonconstantEv(ptr noundef nonnull align 8 dereferenceable(40) %0) local_unnamed_addr #0 align 2 {
  %2 = load ptr, ptr %0, align 8
  %3 = getelementptr inbounds i8, ptr %2, i64 48
  %.sroa.0.0.copyload.i = load i64, ptr %3, align 8
  %4 = and i64 %.sroa.0.0.copyload.i, 1
  %5 = icmp eq i64 %4, 0
  br i1 %5, label %_ZNK7LIR_Opr11is_constantEv.exit, label %_ZNK7LIR_Opr11is_constantEv.exit.thread

_ZNK7LIR_Opr11is_constantEv.exit:                 ; preds = %1
  %6 = inttoptr i64 %.sroa.0.0.copyload.i to ptr
  %7 = load ptr, ptr %6, align 8
  %8 = load ptr, ptr %7, align 8
  %9 = tail call noundef ptr %8(ptr noundef nonnull align 8 dereferenceable(8) %6) #9
  %.not = icmp eq ptr %9, null
  br i1 %.not, label %_ZNK7LIR_Opr11is_constantEv.exit.thread, label %10

10:                                               ; preds = %_ZNK7LIR_Opr11is_constantEv.exit
  %11 = getelementptr inbounds i8, ptr %0, i64 16
  store i64 %.sroa.0.0.copyload.i, ptr %11, align 8
  br label %12

_ZNK7LIR_Opr11is_constantEv.exit.thread:          ; preds = %1, %_ZNK7LIR_Opr11is_constantEv.exit
  tail call void @_ZN7LIRItem9load_itemEv(ptr noundef nonnull align 8 dereferenceable(40) %0) #9
  br label %12

12:                                               ; preds = %_ZNK7LIR_Opr11is_constantEv.exit.thread, %10
  ret void
}